target datalayout = "e-m:e-p270:32:32-p271:32:32-p272:64:64-i64:64-i128:128-f80:128-n8:16:32:64-S128"
target triple = "x86_64-pc-linux-gnu"

%"class.arrow::io::internal::ReadRangeCache" = type { %"class.std::unique_ptr" }
%"class.std::unique_ptr" = type { %"struct.std::__uniq_ptr_data" }
%"struct.std::__uniq_ptr_data" = type { %"class.std::__uniq_ptr_impl" }
%"class.std::__uniq_ptr_impl" = type { %"class.std::tuple" }
%"class.std::tuple" = type { %"struct.std::_Tuple_impl" }
%"struct.std::_Tuple_impl" = type { %"struct.std::_Head_base.4" }
%"struct.std::_Head_base.4" = type { ptr }
%"class.std::__shared_count" = type { ptr }
%"class.std::vector.5" = type { %"struct.std::_Vector_base.6" }
%"struct.std::_Vector_base.6" = type { %"struct.std::_Vector_base<arrow::io::ReadRange, std::allocator<arrow::io::ReadRange>>::_Vector_impl" }
%"struct.std::_Vector_base<arrow::io::ReadRange, std::allocator<arrow::io::ReadRange>>::_Vector_impl" = type { %"struct.std::_Vector_base<arrow::io::ReadRange, std::allocator<arrow::io::ReadRange>>::_Vector_impl_data" }
%"struct.std::_Vector_base<arrow::io::ReadRange, std::allocator<arrow::io::ReadRange>>::_Vector_impl_data" = type { ptr, ptr, ptr }
%"class.arrow::Future" = type { %"class.std::shared_ptr.12" }
%"class.std::shared_ptr.12" = type { %"class.std::__shared_ptr.13" }
%"class.std::__shared_ptr.13" = type { ptr, %"class.std::__shared_count" }

; Function Attrs: mustprogress nounwind uwtable
define linkonce_odr noundef nonnull align 8 dereferenceable(8) ptr @_ZNSt10_Head_baseILm0EPN5arrow2io8internal14ReadRangeCache4ImplELb0EE7_M_headERKS6_(ptr noundef nonnull align 8 dereferenceable(8) %0) #0 comdat align 2 {
  %2 = alloca ptr, align 8
  store ptr %0, ptr %2, align 8, !tbaa !494
  %3 = load ptr, ptr %2, align 8, !tbaa !494
  %4 = getelementptr inbounds nuw %"struct.std::_Head_base.4", ptr %3, i32 0, i32 0
  ret ptr %4
}

; Function Attrs: mustprogress nounwind uwtable
define linkonce_odr noundef nonnull align 8 dereferenceable(8) ptr @_ZNSt11_Tuple_implILm0EJPN5arrow2io8internal14ReadRangeCache4ImplESt14default_deleteIS4_EEE7_M_headERKS8_(ptr noundef nonnull align 8 dereferenceable(8) %0) #0 comdat align 2 {
  %2 = alloca ptr, align 8
  store ptr %0, ptr %2, align 8, !tbaa !490
  %3 = load ptr, ptr %2, align 8, !tbaa !490
  %4 = call noundef nonnull align 8 dereferenceable(8) ptr @_ZNSt10_Head_baseILm0EPN5arrow2io8internal14ReadRangeCache4ImplELb0EE7_M_headERKS6_(ptr noundef nonnull align 8 dereferenceable(8) %3) #20
  ret ptr %4
}

; Function Attrs: mustprogress nounwind uwtable
define linkonce_odr void @_ZNSt15__new_allocatorIN5arrow2io9ReadRangeEE10deallocateEPS2_m(ptr noundef nonnull align 1 dereferenceable(1) %0, ptr noundef %1, i64 noundef %2) #0 comdat align 2 {
  %4 = alloca ptr, align 8
  %5 = alloca ptr, align 8
  %6 = alloca i64, align 8
  store ptr %0, ptr %4, align 8, !tbaa !195
  store ptr %1, ptr %5, align 8, !tbaa !102
  store i64 %2, ptr %6, align 8, !tbaa !12
  %7 = load ptr, ptr %5, align 8, !tbaa !102
  %8 = load i64, ptr %6, align 8, !tbaa !12
  %9 = mul i64 %8, 16
  call void @_ZdlPvm(ptr noundef %7, i64 noundef %9) #22
  ret void
}

; Function Attrs: mustprogress nounwind uwtable
define linkonce_odr void @_ZNSt15__new_allocatorIN5arrow2io9ReadRangeEEC2ERKS3_(ptr noundef nonnull align 1 dereferenceable(1) %0, ptr noundef nonnull align 1 dereferenceable(1) %1) unnamed_addr #0 comdat align 2 {
  %3 = alloca ptr, align 8
  %4 = alloca ptr, align 8
  store ptr %0, ptr %3, align 8, !tbaa !195
  store ptr %1, ptr %4, align 8, !tbaa !195
  ret void
}

; Function Attrs: mustprogress nounwind uwtable
define linkonce_odr noundef nonnull align 8 dereferenceable(8) ptr @_ZSt12__get_helperILm0EPN5arrow2io8internal14ReadRangeCache4ImplEJSt14default_deleteIS4_EEERKT0_RKSt11_Tuple_implIXT_EJS8_DpT1_EE(ptr noundef nonnull align 8 dereferenceable(8) %0) #0 comdat {
  %2 = alloca ptr, align 8
  store ptr %0, ptr %2, align 8, !tbaa !490
  %3 = load ptr, ptr %2, align 8, !tbaa !490
  %4 = call noundef nonnull align 8 dereferenceable(8) ptr @_ZNSt11_Tuple_implILm0EJPN5arrow2io8internal14ReadRangeCache4ImplESt14default_deleteIS4_EEE7_M_headERKS8_(ptr noundef nonnull align 8 dereferenceable(8) %3) #20
  ret ptr %4
}

; Function Attrs: mustprogress uwtable
define linkonce_odr void @_ZNSt16allocator_traitsISaIN5arrow2io9ReadRangeEEE10deallocateERS3_PS2_m(ptr noundef nonnull align 1 dereferenceable(1) %0, ptr noundef %1, i64 noundef %2) #1 comdat align 2 {
  %4 = alloca ptr, align 8
  %5 = alloca ptr, align 8
  %6 = alloca i64, align 8
  store ptr %0, ptr %4, align 8, !tbaa !191
  store ptr %1, ptr %5, align 8, !tbaa !102
  store i64 %2, ptr %6, align 8, !tbaa !12
  %7 = load ptr, ptr %4, align 8, !tbaa !191
  %8 = load ptr, ptr %5, align 8, !tbaa !102
  %9 = load i64, ptr %6, align 8, !tbaa !12
  call void @_ZNSt15__new_allocatorIN5arrow2io9ReadRangeEE10deallocateEPS2_m(ptr noundef nonnull align 1 dereferenceable(1) %7, ptr noundef %8, i64 noundef %9)
  ret void
}

; Function Attrs: mustprogress nounwind uwtable
define linkonce_odr void @_ZNSt12_Destroy_auxILb1EE9__destroyIPN5arrow2io9ReadRangeEEEvT_S6_(ptr noundef %0, ptr noundef %1) #0 comdat align 2 {
  %3 = alloca ptr, align 8
  %4 = alloca ptr, align 8
  store ptr %0, ptr %3, align 8, !tbaa !102
  store ptr %1, ptr %4, align 8, !tbaa !102
  ret void
}

; Function Attrs: mustprogress nounwind uwtable
define linkonce_odr void @_ZNSt12_Vector_baseIN5arrow2io9ReadRangeESaIS2_EE17_Vector_impl_dataC2EOS5_(ptr noundef nonnull align 8 dereferenceable(24) %0, ptr noundef nonnull align 8 dereferenceable(24) %1) unnamed_addr #0 comdat align 2 {
  %3 = alloca ptr, align 8
  %4 = alloca ptr, align 8
  store ptr %0, ptr %3, align 8, !tbaa !193
  store ptr %1, ptr %4, align 8, !tbaa !193
  %5 = load ptr, ptr %3, align 8
  %6 = getelementptr inbounds nuw %"struct.std::_Vector_base<arrow::io::ReadRange, std::allocator<arrow::io::ReadRange>>::_Vector_impl_data", ptr %5, i32 0, i32 0
  %7 = load ptr, ptr %4, align 8, !tbaa !193
  %8 = getelementptr inbounds nuw %"struct.std::_Vector_base<arrow::io::ReadRange, std::allocator<arrow::io::ReadRange>>::_Vector_impl_data", ptr %7, i32 0, i32 0
  %9 = load ptr, ptr %8, align 8, !tbaa !86
  store ptr %9, ptr %6, align 8, !tbaa !86
  %10 = getelementptr inbounds nuw %"struct.std::_Vector_base<arrow::io::ReadRange, std::allocator<arrow::io::ReadRange>>::_Vector_impl_data", ptr %5, i32 0, i32 1
  %11 = load ptr, ptr %4, align 8, !tbaa !193
  %12 = getelementptr inbounds nuw %"struct.std::_Vector_base<arrow::io::ReadRange, std::allocator<arrow::io::ReadRange>>::_Vector_impl_data", ptr %11, i32 0, i32 1
  %13 = load ptr, ptr %12, align 8, !tbaa !89
  store ptr %13, ptr %10, align 8, !tbaa !89
  %14 = getelementptr inbounds nuw %"struct.std::_Vector_base<arrow::io::ReadRange, std::allocator<arrow::io::ReadRange>>::_Vector_impl_data", ptr %5, i32 0, i32 2
  %15 = load ptr, ptr %4, align 8, !tbaa !193
  %16 = getelementptr inbounds nuw %"struct.std::_Vector_base<arrow::io::ReadRange, std::allocator<arrow::io::ReadRange>>::_Vector_impl_data", ptr %15, i32 0, i32 2
  %17 = load ptr, ptr %16, align 8, !tbaa !199
  store ptr %17, ptr %14, align 8, !tbaa !199
  %18 = load ptr, ptr %4, align 8, !tbaa !193
  %19 = getelementptr inbounds nuw %"struct.std::_Vector_base<arrow::io::ReadRange, std::allocator<arrow::io::ReadRange>>::_Vector_impl_data", ptr %18, i32 0, i32 2
  store ptr null, ptr %19, align 8, !tbaa !199
  %20 = load ptr, ptr %4, align 8, !tbaa !193
  %21 = getelementptr inbounds nuw %"struct.std::_Vector_base<arrow::io::ReadRange, std::allocator<arrow::io::ReadRange>>::_Vector_impl_data", ptr %20, i32 0, i32 1
  store ptr null, ptr %21, align 8, !tbaa !89
  %22 = load ptr, ptr %4, align 8, !tbaa !193
  %23 = getelementptr inbounds nuw %"struct.std::_Vector_base<arrow::io::ReadRange, std::allocator<arrow::io::ReadRange>>::_Vector_impl_data", ptr %22, i32 0, i32 0
  store ptr null, ptr %23, align 8, !tbaa !86
  ret void
}

; Function Attrs: mustprogress nounwind uwtable
define linkonce_odr void @_ZNSaIN5arrow2io9ReadRangeEEC2ERKS2_(ptr noundef nonnull align 1 dereferenceable(1) %0, ptr noundef nonnull align 1 dereferenceable(1) %1) unnamed_addr #0 comdat align 2 {
  %3 = alloca ptr, align 8
  %4 = alloca ptr, align 8
  store ptr %0, ptr %3, align 8, !tbaa !191
  store ptr %1, ptr %4, align 8, !tbaa !191
  %5 = load ptr, ptr %3, align 8
  %6 = load ptr, ptr %4, align 8, !tbaa !191
  call void @_ZNSt15__new_allocatorIN5arrow2io9ReadRangeEEC2ERKS3_(ptr noundef nonnull align 1 dereferenceable(1) %5, ptr noundef nonnull align 1 dereferenceable(1) %6) #20
  ret void
}

; Function Attrs: mustprogress nounwind uwtable
define linkonce_odr noundef nonnull align 8 dereferenceable(8) ptr @_ZSt3getILm0EJPN5arrow2io8internal14ReadRangeCache4ImplESt14default_deleteIS4_EEERKNSt13tuple_elementIXT_ESt5tupleIJDpT0_EEE4typeERKSC_(ptr noundef nonnull align 8 dereferenceable(8) %0) #0 comdat {
  %2 = alloca ptr, align 8
  store ptr %0, ptr %2, align 8, !tbaa !488
  %3 = load ptr, ptr %2, align 8, !tbaa !488
  %4 = call noundef nonnull align 8 dereferenceable(8) ptr @_ZSt12__get_helperILm0EPN5arrow2io8internal14ReadRangeCache4ImplEJSt14default_deleteIS4_EEERKT0_RKSt11_Tuple_implIXT_EJS8_DpT1_EE(ptr noundef nonnull align 8 dereferenceable(8) %3) #20
  ret ptr %4
}

; Function Attrs: mustprogress nounwind uwtable
define linkonce_odr void @_ZNSt15__new_allocatorIN5arrow2io9ReadRangeEED2Ev(ptr noundef nonnull align 1 dereferenceable(1) %0) unnamed_addr #0 comdat align 2 {
  %2 = alloca ptr, align 8
  store ptr %0, ptr %2, align 8, !tbaa !195
  ret void
}

; Function Attrs: mustprogress uwtable
define linkonce_odr void @_ZNSt12_Vector_baseIN5arrow2io9ReadRangeESaIS2_EE13_M_deallocateEPS2_m(ptr noundef nonnull align 8 dereferenceable(24) %0, ptr noundef %1, i64 noundef %2) #1 comdat align 2 {
  %4 = alloca ptr, align 8
  %5 = alloca ptr, align 8
  %6 = alloca i64, align 8
  store ptr %0, ptr %4, align 8, !tbaa !189
  store ptr %1, ptr %5, align 8, !tbaa !102
  store i64 %2, ptr %6, align 8, !tbaa !12
  %7 = load ptr, ptr %4, align 8
  %8 = load ptr, ptr %5, align 8, !tbaa !102
  %9 = icmp ne ptr %8, null
  br i1 %9, label %10, label %14

10:                                               ; preds = %3
  %11 = getelementptr inbounds nuw %"struct.std::_Vector_base.6", ptr %7, i32 0, i32 0
  %12 = load ptr, ptr %5, align 8, !tbaa !102
  %13 = load i64, ptr %6, align 8, !tbaa !12
  call void @_ZNSt16allocator_traitsISaIN5arrow2io9ReadRangeEEE10deallocateERS3_PS2_m(ptr noundef nonnull align 1 dereferenceable(1) %11, ptr noundef %12, i64 noundef %13)
  br label %14

14:                                               ; preds = %10, %3
  ret void
}

; Function Attrs: inlinehint mustprogress uwtable
define linkonce_odr void @_ZSt8_DestroyIPN5arrow2io9ReadRangeEEvT_S4_(ptr noundef %0, ptr noundef %1) #7 comdat {
  %3 = alloca ptr, align 8
  %4 = alloca ptr, align 8
  store ptr %0, ptr %3, align 8, !tbaa !102
  store ptr %1, ptr %4, align 8, !tbaa !102
  %5 = load ptr, ptr %3, align 8, !tbaa !102
  %6 = load ptr, ptr %4, align 8, !tbaa !102
  call void @_ZNSt12_Destroy_auxILb1EE9__destroyIPN5arrow2io9ReadRangeEEEvT_S6_(ptr noundef %5, ptr noundef %6)
  ret void
}

; Function Attrs: mustprogress nounwind uwtable
define linkonce_odr void @_ZNSt12_Vector_baseIN5arrow2io9ReadRangeESaIS2_EE12_Vector_implC2EOS5_(ptr noundef nonnull align 8 dereferenceable(24) %0, ptr noundef nonnull align 8 dereferenceable(24) %1) unnamed_addr #0 comdat align 2 {
  %3 = alloca ptr, align 8
  %4 = alloca ptr, align 8
  store ptr %0, ptr %3, align 8, !tbaa !197
  store ptr %1, ptr %4, align 8, !tbaa !197
  %5 = load ptr, ptr %3, align 8
  %6 = load ptr, ptr %4, align 8, !tbaa !197
  call void @_ZNSaIN5arrow2io9ReadRangeEEC2ERKS2_(ptr noundef nonnull align 1 dereferenceable(1) %5, ptr noundef nonnull align 1 dereferenceable(1) %6) #20
  %7 = load ptr, ptr %4, align 8, !tbaa !197
  call void @_ZNSt12_Vector_baseIN5arrow2io9ReadRangeESaIS2_EE17_Vector_impl_dataC2EOS5_(ptr noundef nonnull align 8 dereferenceable(24) %5, ptr noundef nonnull align 8 dereferenceable(24) %7) #20
  ret void
}

; Function Attrs: mustprogress nounwind uwtable
define linkonce_odr noundef ptr @_ZNKSt15__uniq_ptr_implIN5arrow2io8internal14ReadRangeCache4ImplESt14default_deleteIS4_EE6_M_ptrEv(ptr noundef nonnull align 8 dereferenceable(8) %0) #0 comdat align 2 {
  %2 = alloca ptr, align 8
  store ptr %0, ptr %2, align 8, !tbaa !486
  %3 = load ptr, ptr %2, align 8
  %4 = getelementptr inbounds nuw %"class.std::__uniq_ptr_impl", ptr %3, i32 0, i32 0
  %5 = call noundef nonnull align 8 dereferenceable(8) ptr @_ZSt3getILm0EJPN5arrow2io8internal14ReadRangeCache4ImplESt14default_deleteIS4_EEERKNSt13tuple_elementIXT_ESt5tupleIJDpT0_EEE4typeERKSC_(ptr noundef nonnull align 8 dereferenceable(8) %4) #20
  %6 = load ptr, ptr %5, align 8, !tbaa !78
  ret ptr %6
}

; Function Attrs: noinline noreturn nounwind uwtable
define linkonce_odr hidden void @__clang_call_terminate(ptr noundef %0) #12 comdat {
  %2 = call ptr @__cxa_begin_catch(ptr %0) #20
  call void @_ZSt9terminatev() #23
  unreachable
}

; Function Attrs: mustprogress nounwind uwtable
define linkonce_odr void @_ZNSt12_Vector_baseIN5arrow2io9ReadRangeESaIS2_EED2Ev(ptr noundef nonnull align 8 dereferenceable(24) %0) unnamed_addr #0 comdat align 2 personality ptr @__gxx_personality_v0 {
  %2 = alloca ptr, align 8
  store ptr %0, ptr %2, align 8, !tbaa !189
  %3 = load ptr, ptr %2, align 8
  %4 = getelementptr inbounds nuw %"struct.std::_Vector_base.6", ptr %3, i32 0, i32 0
  %5 = getelementptr inbounds nuw %"struct.std::_Vector_base<arrow::io::ReadRange, std::allocator<arrow::io::ReadRange>>::_Vector_impl_data", ptr %4, i32 0, i32 0
  %6 = load ptr, ptr %5, align 8, !tbaa !86
  %7 = getelementptr inbounds nuw %"struct.std::_Vector_base.6", ptr %3, i32 0, i32 0
  %8 = getelementptr inbounds nuw %"struct.std::_Vector_base<arrow::io::ReadRange, std::allocator<arrow::io::ReadRange>>::_Vector_impl_data", ptr %7, i32 0, i32 2
  %9 = load ptr, ptr %8, align 8, !tbaa !199
  %10 = getelementptr inbounds nuw %"struct.std::_Vector_base.6", ptr %3, i32 0, i32 0
  %11 = getelementptr inbounds nuw %"struct.std::_Vector_base<arrow::io::ReadRange, std::allocator<arrow::io::ReadRange>>::_Vector_impl_data", ptr %10, i32 0, i32 0
  %12 = load ptr, ptr %11, align 8, !tbaa !86
  %13 = ptrtoint ptr %9 to i64
  %14 = ptrtoint ptr %12 to i64
  %15 = sub i64 %13, %14
  %16 = sdiv exact i64 %15, 16
  invoke void @_ZNSt12_Vector_baseIN5arrow2io9ReadRangeESaIS2_EE13_M_deallocateEPS2_m(ptr noundef nonnull align 8 dereferenceable(24) %3, ptr noundef %6, i64 noundef %16)
          to label %17 unwind label %19

17:                                               ; preds = %1
  %18 = getelementptr inbounds nuw %"struct.std::_Vector_base.6", ptr %3, i32 0, i32 0
  call void @_ZNSt15__new_allocatorIN5arrow2io9ReadRangeEED2Ev(ptr noundef nonnull align 8 dereferenceable(24) %18) #20
  ret void

19:                                               ; preds = %1
  %20 = landingpad { ptr, i32 }
          catch ptr null
  %21 = extractvalue { ptr, i32 } %20, 0
  call void @__clang_call_terminate(ptr %21) #23
  unreachable
}

; Function Attrs: inlinehint mustprogress uwtable
define linkonce_odr void @_ZSt8_DestroyIPN5arrow2io9ReadRangeES2_EvT_S4_RSaIT0_E(ptr noundef %0, ptr noundef %1, ptr noundef nonnull align 1 dereferenceable(1) %2) #7 comdat {
  %4 = alloca ptr, align 8
  %5 = alloca ptr, align 8
  %6 = alloca ptr, align 8
  store ptr %0, ptr %4, align 8, !tbaa !102
  store ptr %1, ptr %5, align 8, !tbaa !102
  store ptr %2, ptr %6, align 8, !tbaa !191
  %7 = load ptr, ptr %4, align 8, !tbaa !102
  %8 = load ptr, ptr %5, align 8, !tbaa !102
  call void @_ZSt8_DestroyIPN5arrow2io9ReadRangeEEvT_S4_(ptr noundef %7, ptr noundef %8)
  ret void
}

; Function Attrs: mustprogress nounwind uwtable
define linkonce_odr noundef nonnull align 1 dereferenceable(1) ptr @_ZNSt12_Vector_baseIN5arrow2io9ReadRangeESaIS2_EE19_M_get_Tp_allocatorEv(ptr noundef nonnull align 8 dereferenceable(24) %0) #0 comdat align 2 {
  %2 = alloca ptr, align 8
  store ptr %0, ptr %2, align 8, !tbaa !189
  %3 = load ptr, ptr %2, align 8
  %4 = getelementptr inbounds nuw %"struct.std::_Vector_base.6", ptr %3, i32 0, i32 0
  ret ptr %4
}

; Function Attrs: mustprogress nounwind uwtable
define linkonce_odr void @_ZNSt12_Vector_baseIN5arrow2io9ReadRangeESaIS2_EEC2EOS4_(ptr noundef nonnull align 8 dereferenceable(24) %0, ptr noundef nonnull align 8 dereferenceable(24) %1) unnamed_addr #0 comdat align 2 {
  %3 = alloca ptr, align 8
  %4 = alloca ptr, align 8
  store ptr %0, ptr %3, align 8, !tbaa !189
  store ptr %1, ptr %4, align 8, !tbaa !189
  %5 = load ptr, ptr %3, align 8
  %6 = getelementptr inbounds nuw %"struct.std::_Vector_base.6", ptr %5, i32 0, i32 0
  %7 = load ptr, ptr %4, align 8, !tbaa !189
  %8 = getelementptr inbounds nuw %"struct.std::_Vector_base.6", ptr %7, i32 0, i32 0
  call void @_ZNSt12_Vector_baseIN5arrow2io9ReadRangeESaIS2_EE12_Vector_implC2EOS5_(ptr noundef nonnull align 8 dereferenceable(24) %6, ptr noundef nonnull align 8 dereferenceable(24) %8) #20
  ret void
}

; Function Attrs: mustprogress nounwind uwtable
define linkonce_odr noundef ptr @_ZNKSt10unique_ptrIN5arrow2io8internal14ReadRangeCache4ImplESt14default_deleteIS4_EE3getEv(ptr noundef nonnull align 8 dereferenceable(8) %0) #0 comdat align 2 {
  %2 = alloca ptr, align 8
  store ptr %0, ptr %2, align 8, !tbaa !80
  %3 = load ptr, ptr %2, align 8
  %4 = getelementptr inbounds nuw %"class.std::unique_ptr", ptr %3, i32 0, i32 0
  %5 = call noundef ptr @_ZNKSt15__uniq_ptr_implIN5arrow2io8internal14ReadRangeCache4ImplESt14default_deleteIS4_EE6_M_ptrEv(ptr noundef nonnull align 8 dereferenceable(8) %4) #20
  ret ptr %5
}

; Function Attrs: mustprogress nounwind uwtable
define linkonce_odr void @_ZNSt6vectorIN5arrow2io9ReadRangeESaIS2_EED2Ev(ptr noundef nonnull align 8 dereferenceable(24) %0) unnamed_addr #0 comdat align 2 personality ptr @__gxx_personality_v0 {
  %2 = alloca ptr, align 8
  store ptr %0, ptr %2, align 8, !tbaa !84
  %3 = load ptr, ptr %2, align 8
  %4 = getelementptr inbounds nuw %"struct.std::_Vector_base.6", ptr %3, i32 0, i32 0
  %5 = getelementptr inbounds nuw %"struct.std::_Vector_base<arrow::io::ReadRange, std::allocator<arrow::io::ReadRange>>::_Vector_impl_data", ptr %4, i32 0, i32 0
  %6 = load ptr, ptr %5, align 8, !tbaa !86
  %7 = getelementptr inbounds nuw %"struct.std::_Vector_base.6", ptr %3, i32 0, i32 0
  %8 = getelementptr inbounds nuw %"struct.std::_Vector_base<arrow::io::ReadRange, std::allocator<arrow::io::ReadRange>>::_Vector_impl_data", ptr %7, i32 0, i32 1
  %9 = load ptr, ptr %8, align 8, !tbaa !89
  %10 = call noundef nonnull align 1 dereferenceable(1) ptr @_ZNSt12_Vector_baseIN5arrow2io9ReadRangeESaIS2_EE19_M_get_Tp_allocatorEv(ptr noundef nonnull align 8 dereferenceable(24) %3) #20
  invoke void @_ZSt8_DestroyIPN5arrow2io9ReadRangeES2_EvT_S4_RSaIT0_E(ptr noundef %6, ptr noundef %9, ptr noundef nonnull align 1 dereferenceable(1) %10)
          to label %11 unwind label %12

11:                                               ; preds = %1
  call void @_ZNSt12_Vector_baseIN5arrow2io9ReadRangeESaIS2_EED2Ev(ptr noundef nonnull align 8 dereferenceable(24) %3) #20
  ret void

12:                                               ; preds = %1
  %13 = landingpad { ptr, i32 }
          catch ptr null
  %14 = extractvalue { ptr, i32 } %13, 0
  call void @__clang_call_terminate(ptr %14) #23
  unreachable
}

; Function Attrs: mustprogress nounwind uwtable
define linkonce_odr void @_ZNSt6vectorIN5arrow2io9ReadRangeESaIS2_EEC2EOS4_(ptr noundef nonnull align 8 dereferenceable(24) %0, ptr noundef nonnull align 8 dereferenceable(24) %1) unnamed_addr #0 comdat align 2 {
  %3 = alloca ptr, align 8
  %4 = alloca ptr, align 8
  store ptr %0, ptr %3, align 8, !tbaa !84
  store ptr %1, ptr %4, align 8, !tbaa !84
  %5 = load ptr, ptr %3, align 8
  %6 = load ptr, ptr %4, align 8, !tbaa !84
  call void @_ZNSt12_Vector_baseIN5arrow2io9ReadRangeESaIS2_EEC2EOS4_(ptr noundef nonnull align 8 dereferenceable(24) %5, ptr noundef nonnull align 8 dereferenceable(24) %6) #20
  ret void
}

; Function Attrs: mustprogress nounwind uwtable
define linkonce_odr noundef ptr @_ZNKSt10unique_ptrIN5arrow2io8internal14ReadRangeCache4ImplESt14default_deleteIS4_EEptEv(ptr noundef nonnull align 8 dereferenceable(8) %0) #0 comdat align 2 {
  %2 = alloca ptr, align 8
  store ptr %0, ptr %2, align 8, !tbaa !80
  %3 = load ptr, ptr %2, align 8
  %4 = call noundef ptr @_ZNKSt10unique_ptrIN5arrow2io8internal14ReadRangeCache4ImplESt14default_deleteIS4_EE3getEv(ptr noundef nonnull align 8 dereferenceable(8) %3) #20
  ret ptr %4
}

; Function Attrs: mustprogress uwtable
define void @_ZN5arrow2io8internal14ReadRangeCache7WaitForESt6vectorINS0_9ReadRangeESaIS4_EE(ptr dead_on_unwind noalias writable sret(%"class.arrow::Future") align 8 %0, ptr noundef nonnull align 8 dereferenceable(8) %1, ptr noundef %2) #1 align 2 personality ptr @__gxx_personality_v0 {
  %4 = alloca ptr, align 8
  %5 = alloca ptr, align 8
  %6 = alloca ptr, align 8
  %7 = alloca %"class.std::vector.5", align 8
  %8 = alloca ptr, align 8
  %9 = alloca i32, align 4
  store ptr %0, ptr %4, align 8
  store ptr %1, ptr %5, align 8, !tbaa !44
  store ptr %2, ptr %6, align 8, !tbaa !84
  %10 = load ptr, ptr %5, align 8
  %11 = getelementptr inbounds nuw %"class.arrow::io::internal::ReadRangeCache", ptr %10, i32 0, i32 0
  %12 = call noundef ptr @_ZNKSt10unique_ptrIN5arrow2io8internal14ReadRangeCache4ImplESt14default_deleteIS4_EEptEv(ptr noundef nonnull align 8 dereferenceable(8) %11) #20
  call void @_ZNSt6vectorIN5arrow2io9ReadRangeESaIS2_EEC2EOS4_(ptr noundef nonnull align 8 dereferenceable(24) %7, ptr noundef nonnull align 8 dereferenceable(24) %2) #20
  %13 = load ptr, ptr %12, align 8, !tbaa !76
  %14 = getelementptr inbounds ptr, ptr %13, i64 7
  %15 = load ptr, ptr %14, align 8
  invoke void %15(ptr dead_on_unwind writable sret(%"class.arrow::Future") align 8 %0, ptr noundef nonnull align 8 dereferenceable(128) %12, ptr noundef %7)
          to label %16 unwind label %17

16:                                               ; preds = %3
  call void @_ZNSt6vectorIN5arrow2io9ReadRangeESaIS2_EED2Ev(ptr noundef nonnull align 8 dereferenceable(24) %7) #20
  ret void

17:                                               ; preds = %3
  %18 = landingpad { ptr, i32 }
          cleanup
  %19 = extractvalue { ptr, i32 } %18, 0
  store ptr %19, ptr %8, align 8
  %20 = extractvalue { ptr, i32 } %18, 1
  store i32 %20, ptr %9, align 4
  call void @_ZNSt6vectorIN5arrow2io9ReadRangeESaIS2_EED2Ev(ptr noundef nonnull align 8 dereferenceable(24) %7) #20
  br label %21

21:                                               ; preds = %17
  %22 = load ptr, ptr %8, align 8
  %23 = load i32, ptr %9, align 4
  %24 = insertvalue { ptr, i32 } poison, ptr %22, 0
  %25 = insertvalue { ptr, i32 } %24, i32 %23, 1
  resume { ptr, i32 } %25
}